(dp0
S'bob'
p1
S'c2457d3096fc9c2b6f6bf0ffc936f47812073a34412f9b6f8162afacfe6ea5ff5aab46fcc12060c6ac1cae57f83b4905fbe14a4a32bad62c820720a51159345f'
p2
sS'john'
p3
S'f91b850a442e203da03049c509cb1d5c7b18dcab7f581318efc838f6720b85d617608f31ce2f7d12e6d03e2f804ca329f3f7376a122f09542ef4af5482dcc8af'
p4
sS'alice'
p5
S'5d8562f8212ed3712585f93603c2ad09ed258ce8d4d63c351e99ee51359e4f17522635f5e28b1410abc26fdef2e91ce3c6307a9962b515154997b7a82c0ce3cb'
p6
sS'cindy'
p7
S'7b35381b6bde7e3c3536d59566a217ea4af76786ad94220231b20a522532b8b4384a4b5a9c4e3291cd2d6af11f030fa365e6f7e1feedc4c3fa17a7785c4f5b83'
p8
sS'isatou'
p9
S'7810a7caf98ce036b269f408e116ae55333c4f30404ea9e5f1f08e8b99a9fc0ed40f834a696249dd60eb7ecbd7fe8671a5019c3ea595a40304344da9233abb48'
p10
s.