(dp0
S'jarai'
p1
S'42bf3e269c0c073f8cc5e30de47ac33f21ec503555a556ace7dbbed6139ef14ab542226ffbb9eaaf76c5bad23067b2fa4276e5347c5b92ee4b48e5268aea3402'
p2
sS'bob'
p3
S'af119c7e79236f2bd33e573e7982a6fd8be61aea7332ff6b44d3c159a8b73d854b753d255c6631805a31fd04dd3540a8415bbbd7130dcb02bfa1e79a8dcfd36b'
p4
sS'isatou'
p5
S'2e870f1b25dee48fc7666354a9836a8bdfb2243c96d3f889beb63e5219cc60e986778f7f80dee8ad9634f1aaabbff6fafc020692ef4ebed8430ae8e58daea3bc'
p6
sS'alice'
p7
S'ac2049f61c98df834bf028bb711814a84bdc4558f89dd3eef06ad3c4efd69323ea2048dced44dcd5da810a80edd7b726b5f52581e85b11da1db98f305fd6d760'
p8
s.